target datalayout = "e-m:e-p270:32:32-p271:32:32-p272:64:64-i64:64-i128:128-f80:128-n8:16:32:64-S128"
target triple = "x86_64-pc-linux-gnu"

%"class.pbrt::SampledSpectrum" = type { %"class.pstd::array" }
%"class.pstd::array" = type { [4 x float] }
%"class.pbrt::Medium" = type { %"class.pbrt::TaggedPointer" }
%"class.pbrt::TaggedPointer" = type { i64 }
%"class.pbrt::LightBase" = type { i32, %"class.pbrt::Transform", %"struct.pbrt::MediumInterface" }
%"class.pbrt::Transform" = type { %"class.pbrt::SquareMatrix.10", %"class.pbrt::SquareMatrix.10" }
%"class.pbrt::SquareMatrix.10" = type { [4 x [4 x float]] }
%"struct.pbrt::MediumInterface" = type { %"class.pbrt::Medium", %"class.pbrt::Medium" }
%"class.pbrt::DenselySampledSpectrum" = type { i32, i32, %"class.pstd::vector.15" }
%"class.pstd::vector.15" = type { %"class.pstd::pmr::polymorphic_allocator.16", ptr, i64, i64 }
%"class.pstd::pmr::polymorphic_allocator.16" = type { ptr }
%"class.pbrt::SampledWavelengths" = type { %"class.pstd::array", %"class.pstd::array" }
%"class.pbrt::PointLight" = type <{ %"class.pbrt::LightBase", ptr, float, [4 x i8] }>

; Function Attrs: mustprogress nounwind uwtable
define linkonce_odr dso_local noundef nonnull align 4 dereferenceable(4) ptr @_ZN4pstd5arrayIfLi4EEixEm(ptr noundef nonnull align 4 dereferenceable(16) %0, i64 noundef %1) #6 comdat align 2 {
  %3 = alloca ptr, align 8
  %4 = alloca i64, align 8
  store ptr %0, ptr %3, align 8, !tbaa !614
  store i64 %1, ptr %4, align 8, !tbaa !54
  %5 = load ptr, ptr %3, align 8
  %6 = getelementptr inbounds nuw %"class.pstd::array", ptr %5, i32 0, i32 0
  %7 = load i64, ptr %4, align 8, !tbaa !54
  %8 = getelementptr inbounds nuw [4 x float], ptr %6, i64 0, i64 %7
  ret ptr %8
}

; Function Attrs: mustprogress nounwind uwtable
define linkonce_odr dso_local noundef nonnull align 4 dereferenceable(4) ptr @_ZNK4pstd5arrayIfLi4EEixEm(ptr noundef nonnull align 4 dereferenceable(16) %0, i64 noundef %1) #6 comdat align 2 {
  %3 = alloca ptr, align 8
  %4 = alloca i64, align 8
  store ptr %0, ptr %3, align 8, !tbaa !614
  store i64 %1, ptr %4, align 8, !tbaa !54
  %5 = load ptr, ptr %3, align 8
  %6 = getelementptr inbounds nuw %"class.pstd::array", ptr %5, i32 0, i32 0
  %7 = load i64, ptr %4, align 8, !tbaa !54
  %8 = getelementptr inbounds nuw [4 x float], ptr %6, i64 0, i64 %7
  ret ptr %8
}

; Function Attrs: mustprogress nounwind uwtable
define linkonce_odr dso_local void @_ZN4pstd5arrayIfLi4EEC2Ev(ptr noundef nonnull align 4 dereferenceable(16) %0) unnamed_addr #6 comdat align 2 {
  %2 = alloca ptr, align 8
  store ptr %0, ptr %2, align 8, !tbaa !614
  %3 = load ptr, ptr %2, align 8
  %4 = getelementptr inbounds nuw %"class.pstd::array", ptr %3, i32 0, i32 0
  %5 = getelementptr inbounds float, ptr %4, i64 4
  br label %6

6:                                                ; preds = %6, %1
  %7 = phi ptr [ %4, %1 ], [ %8, %6 ]
  store float 0.000000e+00, ptr %7, align 4, !tbaa !9
  %8 = getelementptr inbounds float, ptr %7, i64 1
  %9 = icmp eq ptr %8, %5
  br i1 %9, label %10, label %6

10:                                               ; preds = %6
  ret void
}

; Function Attrs: mustprogress nounwind uwtable
define linkonce_odr dso_local { <2 x float>, <2 x float> } @_ZNK4pbrt15SampledSpectrummlEf(ptr noundef nonnull align 4 dereferenceable(16) %0, float noundef %1) #6 comdat align 2 {
  %3 = alloca %"class.pbrt::SampledSpectrum", align 4
  %4 = alloca ptr, align 8
  %5 = alloca float, align 4
  %6 = alloca i32, align 4
  store ptr %0, ptr %4, align 8, !tbaa !18
  store float %1, ptr %5, align 4, !tbaa !9
  %7 = load ptr, ptr %4, align 8
  br label %8

8:                                                ; preds = %2
  br label %9

9:                                                ; preds = %8
  call void @llvm.memcpy.p0.p0.i64(ptr align 4 %3, ptr align 4 %7, i64 16, i1 false), !tbaa.struct !152
  call void @llvm.lifetime.start.p0(i64 4, ptr %6) #22
  store i32 0, ptr %6, align 4, !tbaa !61
  br label %10

10:                                               ; preds = %22, %9
  %11 = load i32, ptr %6, align 4, !tbaa !61
  %12 = icmp slt i32 %11, 4
  br i1 %12, label %14, label %13

13:                                               ; preds = %10
  call void @llvm.lifetime.end.p0(i64 4, ptr %6) #22
  br label %25

14:                                               ; preds = %10
  %15 = load float, ptr %5, align 4, !tbaa !9
  %16 = getelementptr inbounds nuw %"class.pbrt::SampledSpectrum", ptr %3, i32 0, i32 0
  %17 = load i32, ptr %6, align 4, !tbaa !61
  %18 = sext i32 %17 to i64
  %19 = call noundef nonnull align 4 dereferenceable(4) ptr @_ZN4pstd5arrayIfLi4EEixEm(ptr noundef nonnull align 4 dereferenceable(16) %16, i64 noundef %18)
  %20 = load float, ptr %19, align 4, !tbaa !9
  %21 = fmul float %20, %15
  store float %21, ptr %19, align 4, !tbaa !9
  br label %22

22:                                               ; preds = %14
  %23 = load i32, ptr %6, align 4, !tbaa !61
  %24 = add nsw i32 %23, 1
  store i32 %24, ptr %6, align 4, !tbaa !61
  br label %10, !llvm.loop !175

25:                                               ; preds = %13
  %26 = getelementptr inbounds nuw %"class.pbrt::SampledSpectrum", ptr %3, i32 0, i32 0
  %27 = getelementptr inbounds nuw %"class.pstd::array", ptr %26, i32 0, i32 0
  %28 = load { <2 x float>, <2 x float> }, ptr %27, align 4
  ret { <2 x float>, <2 x float> } %28
}

; Function Attrs: mustprogress nounwind uwtable
define linkonce_odr dso_local noundef nonnull align 4 dereferenceable(4) ptr @_ZNK4pstd6vectorIfNS_3pmr21polymorphic_allocatorIfEEEixEm(ptr noundef nonnull align 8 dereferenceable(32) %0, i64 noundef %1) #6 comdat align 2 {
  %3 = alloca ptr, align 8
  %4 = alloca i64, align 8
  store ptr %0, ptr %3, align 8, !tbaa !514
  store i64 %1, ptr %4, align 8, !tbaa !54
  %5 = load ptr, ptr %3, align 8
  br label %6

6:                                                ; preds = %2
  br label %7

7:                                                ; preds = %6
  %8 = getelementptr inbounds nuw %"class.pstd::vector.15", ptr %5, i32 0, i32 1
  %9 = load ptr, ptr %8, align 8, !tbaa !516
  %10 = load i64, ptr %4, align 8, !tbaa !54
  %11 = getelementptr inbounds nuw float, ptr %9, i64 %10
  ret ptr %11
}

; Function Attrs: mustprogress uwtable
define linkonce_odr dso_local noundef nonnull align 4 dereferenceable(4) ptr @_ZN4pbrt15SampledSpectrumixEi(ptr noundef nonnull align 4 dereferenceable(16) %0, i32 noundef %1) #1 comdat align 2 {
  %3 = alloca ptr, align 8
  %4 = alloca i32, align 4
  store ptr %0, ptr %3, align 8, !tbaa !18
  store i32 %1, ptr %4, align 4, !tbaa !61
  %5 = load ptr, ptr %3, align 8
  br label %6

6:                                                ; preds = %2
  br label %7

7:                                                ; preds = %6
  %8 = getelementptr inbounds nuw %"class.pbrt::SampledSpectrum", ptr %5, i32 0, i32 0
  %9 = load i32, ptr %4, align 4, !tbaa !61
  %10 = sext i32 %9 to i64
  %11 = call noundef nonnull align 4 dereferenceable(4) ptr @_ZN4pstd5arrayIfLi4EEixEm(ptr noundef nonnull align 4 dereferenceable(16) %8, i64 noundef %10)
  ret ptr %11
}

; Function Attrs: mustprogress nounwind uwtable
define linkonce_odr dso_local noundef i64 @_ZNK4pstd6vectorIfNS_3pmr21polymorphic_allocatorIfEEE4sizeEv(ptr noundef nonnull align 8 dereferenceable(32) %0) #6 comdat align 2 {
  %2 = alloca ptr, align 8
  store ptr %0, ptr %2, align 8, !tbaa !514
  %3 = load ptr, ptr %2, align 8
  %4 = getelementptr inbounds nuw %"class.pstd::vector.15", ptr %3, i32 0, i32 3
  %5 = load i64, ptr %4, align 8, !tbaa !518
  ret i64 %5
}

; Function Attrs: mustprogress nounwind uwtable
define linkonce_odr dso_local noundef i64 @_ZSt6lroundf(float noundef %0) #6 comdat {
  %2 = alloca float, align 4
  store float %0, ptr %2, align 4, !tbaa !9
  %3 = load float, ptr %2, align 4, !tbaa !9
  %4 = call i64 @lroundf(float noundef %3) #22, !tbaa !61
  ret i64 %4
}

; Function Attrs: mustprogress uwtable
define linkonce_odr dso_local noundef float @_ZNK4pbrt18SampledWavelengthsixEi(ptr noundef nonnull align 4 dereferenceable(32) %0, i32 noundef %1) #1 comdat align 2 {
  %3 = alloca ptr, align 8
  %4 = alloca i32, align 4
  store ptr %0, ptr %3, align 8, !tbaa !139
  store i32 %1, ptr %4, align 4, !tbaa !61
  %5 = load ptr, ptr %3, align 8
  %6 = getelementptr inbounds nuw %"class.pbrt::SampledWavelengths", ptr %5, i32 0, i32 0
  %7 = load i32, ptr %4, align 4, !tbaa !61
  %8 = sext i32 %7 to i64
  %9 = call noundef nonnull align 4 dereferenceable(4) ptr @_ZNK4pstd5arrayIfLi4EEixEm(ptr noundef nonnull align 4 dereferenceable(16) %6, i64 noundef %8)
  %10 = load float, ptr %9, align 4, !tbaa !9
  ret float %10
}

; Function Attrs: mustprogress nounwind uwtable
define linkonce_odr dso_local void @_ZN4pbrt15SampledSpectrumC2Ev(ptr noundef nonnull align 4 dereferenceable(16) %0) unnamed_addr #6 comdat align 2 {
  %2 = alloca ptr, align 8
  store ptr %0, ptr %2, align 8, !tbaa !18
  %3 = load ptr, ptr %2, align 8
  %4 = getelementptr inbounds nuw %"class.pbrt::SampledSpectrum", ptr %3, i32 0, i32 0
  call void @_ZN4pstd5arrayIfLi4EEC2Ev(ptr noundef nonnull align 4 dereferenceable(16) %4) #22
  ret void
}

; Function Attrs: mustprogress uwtable
define linkonce_odr dso_local { <2 x float>, <2 x float> } @_ZN4pbrtmlEfRKNS_15SampledSpectrumE(float noundef %0, ptr noundef nonnull align 4 dereferenceable(16) %1) #12 comdat {
  %3 = alloca %"class.pbrt::SampledSpectrum", align 4
  %4 = alloca float, align 4
  %5 = alloca ptr, align 8
  store float %0, ptr %4, align 4, !tbaa !9
  store ptr %1, ptr %5, align 8, !tbaa !18
  %6 = load ptr, ptr %5, align 8, !tbaa !18
  %7 = load float, ptr %4, align 4, !tbaa !9
  %8 = call { <2 x float>, <2 x float> } @_ZNK4pbrt15SampledSpectrummlEf(ptr noundef nonnull align 4 dereferenceable(16) %6, float noundef %7)
  %9 = getelementptr inbounds nuw %"class.pbrt::SampledSpectrum", ptr %3, i32 0, i32 0
  %10 = getelementptr inbounds nuw %"class.pstd::array", ptr %9, i32 0, i32 0
  %11 = getelementptr inbounds nuw { <2 x float>, <2 x float> }, ptr %10, i32 0, i32 0
  %12 = extractvalue { <2 x float>, <2 x float> } %8, 0
  store <2 x float> %12, ptr %11, align 4
  %13 = getelementptr inbounds nuw { <2 x float>, <2 x float> }, ptr %10, i32 0, i32 1
  %14 = extractvalue { <2 x float>, <2 x float> } %8, 1
  store <2 x float> %14, ptr %13, align 4
  %15 = getelementptr inbounds nuw %"class.pbrt::SampledSpectrum", ptr %3, i32 0, i32 0
  %16 = getelementptr inbounds nuw %"class.pstd::array", ptr %15, i32 0, i32 0
  %17 = load { <2 x float>, <2 x float> }, ptr %16, align 4
  ret { <2 x float>, <2 x float> } %17
}

; Function Attrs: mustprogress uwtable
define linkonce_odr dso_local { <2 x float>, <2 x float> } @_ZNK4pbrt22DenselySampledSpectrum6SampleERKNS_18SampledWavelengthsE(ptr noundef nonnull align 8 dereferenceable(40) %0, ptr noundef nonnull align 4 dereferenceable(32) %1) #1 comdat align 2 {
  %3 = alloca %"class.pbrt::SampledSpectrum", align 4
  %4 = alloca ptr, align 8
  %5 = alloca ptr, align 8
  %6 = alloca i32, align 4
  %7 = alloca i32, align 4
  store ptr %0, ptr %4, align 8, !tbaa !79
  store ptr %1, ptr %5, align 8, !tbaa !139
  %8 = load ptr, ptr %4, align 8
  call void @_ZN4pbrt15SampledSpectrumC2Ev(ptr noundef nonnull align 4 dereferenceable(16) %3) #22
  call void @llvm.lifetime.start.p0(i64 4, ptr %6) #22
  store i32 0, ptr %6, align 4, !tbaa !61
  br label %9

9:                                                ; preds = %43, %2
  %10 = load i32, ptr %6, align 4, !tbaa !61
  %11 = icmp slt i32 %10, 4
  br i1 %11, label %13, label %12

12:                                               ; preds = %9
  call void @llvm.lifetime.end.p0(i64 4, ptr %6) #22
  br label %46

13:                                               ; preds = %9
  call void @llvm.lifetime.start.p0(i64 4, ptr %7) #22
  %14 = load ptr, ptr %5, align 8, !tbaa !139
  %15 = load i32, ptr %6, align 4, !tbaa !61
  %16 = call noundef float @_ZNK4pbrt18SampledWavelengthsixEi(ptr noundef nonnull align 4 dereferenceable(32) %14, i32 noundef %15)
  %17 = call noundef i64 @_ZSt6lroundf(float noundef %16)
  %18 = getelementptr inbounds nuw %"class.pbrt::DenselySampledSpectrum", ptr %8, i32 0, i32 0
  %19 = load i32, ptr %18, align 8, !tbaa !89
  %20 = sext i32 %19 to i64
  %21 = sub nsw i64 %17, %20
  %22 = trunc i64 %21 to i32
  store i32 %22, ptr %7, align 4, !tbaa !61
  %23 = load i32, ptr %7, align 4, !tbaa !61
  %24 = icmp slt i32 %23, 0
  br i1 %24, label %31, label %25

25:                                               ; preds = %13
  %26 = load i32, ptr %7, align 4, !tbaa !61
  %27 = sext i32 %26 to i64
  %28 = getelementptr inbounds nuw %"class.pbrt::DenselySampledSpectrum", ptr %8, i32 0, i32 2
  %29 = call noundef i64 @_ZNK4pstd6vectorIfNS_3pmr21polymorphic_allocatorIfEEE4sizeEv(ptr noundef nonnull align 8 dereferenceable(32) %28)
  %30 = icmp uge i64 %27, %29
  br i1 %30, label %31, label %34

31:                                               ; preds = %25, %13
  %32 = load i32, ptr %6, align 4, !tbaa !61
  %33 = call noundef nonnull align 4 dereferenceable(4) ptr @_ZN4pbrt15SampledSpectrumixEi(ptr noundef nonnull align 4 dereferenceable(16) %3, i32 noundef %32)
  store float 0.000000e+00, ptr %33, align 4, !tbaa !9
  br label %42

34:                                               ; preds = %25
  %35 = getelementptr inbounds nuw %"class.pbrt::DenselySampledSpectrum", ptr %8, i32 0, i32 2
  %36 = load i32, ptr %7, align 4, !tbaa !61
  %37 = sext i32 %36 to i64
  %38 = call noundef nonnull align 4 dereferenceable(4) ptr @_ZNK4pstd6vectorIfNS_3pmr21polymorphic_allocatorIfEEEixEm(ptr noundef nonnull align 8 dereferenceable(32) %35, i64 noundef %37)
  %39 = load float, ptr %38, align 4, !tbaa !9
  %40 = load i32, ptr %6, align 4, !tbaa !61
  %41 = call noundef nonnull align 4 dereferenceable(4) ptr @_ZN4pbrt15SampledSpectrumixEi(ptr noundef nonnull align 4 dereferenceable(16) %3, i32 noundef %40)
  store float %39, ptr %41, align 4, !tbaa !9
  br label %42

42:                                               ; preds = %34, %31
  call void @llvm.lifetime.end.p0(i64 4, ptr %7) #22
  br label %43

43:                                               ; preds = %42
  %44 = load i32, ptr %6, align 4, !tbaa !61
  %45 = add nsw i32 %44, 1
  store i32 %45, ptr %6, align 4, !tbaa !61
  br label %9, !llvm.loop !141

46:                                               ; preds = %12
  %47 = getelementptr inbounds nuw %"class.pbrt::SampledSpectrum", ptr %3, i32 0, i32 0
  %48 = getelementptr inbounds nuw %"class.pstd::array", ptr %47, i32 0, i32 0
  %49 = load { <2 x float>, <2 x float> }, ptr %48, align 4
  ret { <2 x float>, <2 x float> } %49
}

; Function Attrs: mustprogress uwtable
define dso_local { <2 x float>, <2 x float> } @_ZNK4pbrt10PointLight3PhiENS_18SampledWavelengthsE(ptr noundef nonnull align 8 dereferenceable(164) %0, ptr noundef byval(%"class.pbrt::SampledWavelengths") align 8 %1) #12 align 2 {
  %3 = alloca %"class.pbrt::SampledSpectrum", align 4
  %4 = alloca ptr, align 8
  %5 = alloca %"class.pbrt::SampledSpectrum", align 4
  store ptr %0, ptr %4, align 8, !tbaa !134
  %6 = load ptr, ptr %4, align 8
  %7 = getelementptr inbounds nuw %"class.pbrt::PointLight", ptr %6, i32 0, i32 2
  %8 = load float, ptr %7, align 8, !tbaa !136
  %9 = fmul float 0x402921FB60000000, %8
  call void @llvm.lifetime.start.p0(i64 16, ptr %5) #22
  %10 = getelementptr inbounds nuw %"class.pbrt::PointLight", ptr %6, i32 0, i32 1
  %11 = load ptr, ptr %10, align 8, !tbaa !138
  %12 = call { <2 x float>, <2 x float> } @_ZNK4pbrt22DenselySampledSpectrum6SampleERKNS_18SampledWavelengthsE(ptr noundef nonnull align 8 dereferenceable(40) %11, ptr noundef nonnull align 4 dereferenceable(32) %1)
  %13 = getelementptr inbounds nuw %"class.pbrt::SampledSpectrum", ptr %5, i32 0, i32 0
  %14 = getelementptr inbounds nuw %"class.pstd::array", ptr %13, i32 0, i32 0
  %15 = getelementptr inbounds nuw { <2 x float>, <2 x float> }, ptr %14, i32 0, i32 0
  %16 = extractvalue { <2 x float>, <2 x float> } %12, 0
  store <2 x float> %16, ptr %15, align 4
  %17 = getelementptr inbounds nuw { <2 x float>, <2 x float> }, ptr %14, i32 0, i32 1
  %18 = extractvalue { <2 x float>, <2 x float> } %12, 1
  store <2 x float> %18, ptr %17, align 4
  %19 = call { <2 x float>, <2 x float> } @_ZN4pbrtmlEfRKNS_15SampledSpectrumE(float noundef %9, ptr noundef nonnull align 4 dereferenceable(16) %5)
  %20 = getelementptr inbounds nuw %"class.pbrt::SampledSpectrum", ptr %3, i32 0, i32 0
  %21 = getelementptr inbounds nuw %"class.pstd::array", ptr %20, i32 0, i32 0
  %22 = getelementptr inbounds nuw { <2 x float>, <2 x float> }, ptr %21, i32 0, i32 0
  %23 = extractvalue { <2 x float>, <2 x float> } %19, 0
  store <2 x float> %23, ptr %22, align 4
  %24 = getelementptr inbounds nuw { <2 x float>, <2 x float> }, ptr %21, i32 0, i32 1
  %25 = extractvalue { <2 x float>, <2 x float> } %19, 1
  store <2 x float> %25, ptr %24, align 4
  call void @llvm.lifetime.end.p0(i64 16, ptr %5) #22
  %26 = getelementptr inbounds nuw %"class.pbrt::SampledSpectrum", ptr %3, i32 0, i32 0
  %27 = getelementptr inbounds nuw %"class.pstd::array", ptr %26, i32 0, i32 0
  %28 = load { <2 x float>, <2 x float> }, ptr %27, align 4
  ret { <2 x float>, <2 x float> } %28
}