; Function Attrs: mustprogress nounwind uwtable
define dso_local { <2 x float>, <2 x float> } @_ZNK4pbrt10PointLight3PhiENS_18SampledWavelengthsE(ptr noundef nonnull readonly align 8 captures(none) dereferenceable(164) %0, ptr noundef readonly byval(%"class.pbrt::SampledWavelengths") align 8 captures(none) %1) local_unnamed_addr #11 align 2 {
  %3 = alloca %"class.pbrt::SampledSpectrum", align 8
  %4 = alloca %"class.pbrt::SampledSpectrum", align 8
  %5 = getelementptr inbounds nuw i8, ptr %0, i64 160
  %6 = load float, ptr %5, align 8, !tbaa !108
  %7 = getelementptr inbounds nuw i8, ptr %0, i64 152
  %8 = load ptr, ptr %7, align 8, !tbaa !110
  call void @llvm.lifetime.start.p0(i64 16, ptr nonnull %4)
  call void @llvm.memset.p0.i64(ptr noundef nonnull align 8 dereferenceable(16) %4, i8 0, i64 16, i1 false), !tbaa !77
  %9 = getelementptr inbounds nuw i8, ptr %8, i64 32
  %10 = load i64, ptr %9, align 8
  %11 = getelementptr inbounds nuw i8, ptr %8, i64 16
  %12 = load ptr, ptr %11, align 8
  br label %13

13:                                               ; preds = %26, %2
  %indvars.iv.i = phi i64 [ 0, %2 ], [ %indvars.iv.next.i, %26 ]
  %14 = getelementptr inbounds nuw [4 x float], ptr %1, i64 0, i64 %indvars.iv.i
  %15 = load float, ptr %14, align 4, !tbaa !77
  %16 = tail call noundef i64 @lroundf(float noundef %15) #38, !tbaa !86
  %17 = load i32, ptr %8, align 8, !tbaa !72
  %18 = trunc i64 %16 to i32
  %19 = sub i32 %18, %17
  %20 = icmp slt i32 %19, 0
  br i1 %20, label %26, label %21

21:                                               ; preds = %13
  %22 = zext nneg i32 %19 to i64
  %.not.i = icmp ugt i64 %10, %22
  br i1 %.not.i, label %23, label %26

23:                                               ; preds = %21
  %24 = getelementptr inbounds nuw float, ptr %12, i64 %22
  %25 = load float, ptr %24, align 4, !tbaa !77
  br label %26

26:                                               ; preds = %23, %21, %13
  %.sink.i = phi float [ %25, %23 ], [ 0.000000e+00, %21 ], [ 0.000000e+00, %13 ]
  %27 = getelementptr inbounds nuw [4 x float], ptr %4, i64 0, i64 %indvars.iv.i
  store float %.sink.i, ptr %27, align 4, !tbaa !77
  %indvars.iv.next.i = add nuw nsw i64 %indvars.iv.i, 1
  %exitcond.not.i = icmp eq i64 %indvars.iv.next.i, 4
  br i1 %exitcond.not.i, label %_ZNK4pbrt22DenselySampledSpectrum6SampleERKNS_18SampledWavelengthsE.exit, label %13, !llvm.loop !111

_ZNK4pbrt22DenselySampledSpectrum6SampleERKNS_18SampledWavelengthsE.exit: ; preds = %26
  %28 = fmul float %6, 0x402921FB60000000
  %.fca.0.load.i = load <2 x float>, ptr %4, align 8
  %.fca.1.gep.i = getelementptr inbounds nuw i8, ptr %4, i64 8
  %.fca.1.load.i = load <2 x float>, ptr %.fca.1.gep.i, align 8
  call void @llvm.lifetime.end.p0(i64 16, ptr nonnull %4)
  call void @llvm.lifetime.start.p0(i64 16, ptr nonnull %3)
  store <2 x float> %.fca.0.load.i, ptr %3, align 8
  %.sroa.4.0..sroa_idx = getelementptr inbounds nuw i8, ptr %3, i64 8
  store <2 x float> %.fca.1.load.i, ptr %.sroa.4.0..sroa_idx, align 8, !tbaa !16
  br label %29

29:                                               ; preds = %29, %_ZNK4pbrt22DenselySampledSpectrum6SampleERKNS_18SampledWavelengthsE.exit
  %indvars.iv.i.i = phi i64 [ 0, %_ZNK4pbrt22DenselySampledSpectrum6SampleERKNS_18SampledWavelengthsE.exit ], [ %indvars.iv.next.i.i, %29 ]
  %30 = getelementptr inbounds nuw [4 x float], ptr %3, i64 0, i64 %indvars.iv.i.i
  %31 = load float, ptr %30, align 4, !tbaa !77
  %32 = fmul float %28, %31
  store float %32, ptr %30, align 4, !tbaa !77
  %indvars.iv.next.i.i = add nuw nsw i64 %indvars.iv.i.i, 1
  %exitcond.not.i.i = icmp eq i64 %indvars.iv.next.i.i, 4
  br i1 %exitcond.not.i.i, label %_ZN4pbrtmlEfRKNS_15SampledSpectrumE.exit, label %29, !llvm.loop !112

_ZN4pbrtmlEfRKNS_15SampledSpectrumE.exit:         ; preds = %29
  %.fca.0.load.i.i = load <2 x float>, ptr %3, align 8
  %.fca.0.insert.i.i = insertvalue { <2 x float>, <2 x float> } poison, <2 x float> %.fca.0.load.i.i, 0
  %.fca.1.load.i.i = load <2 x float>, ptr %.sroa.4.0..sroa_idx, align 8
  %.fca.1.insert.i.i = insertvalue { <2 x float>, <2 x float> } %.fca.0.insert.i.i, <2 x float> %.fca.1.load.i.i, 1
  call void @llvm.lifetime.end.p0(i64 16, ptr nonnull %3)
  ret { <2 x float>, <2 x float> } %.fca.1.insert.i.i
}